target datalayout = "e-m:e-p270:32:32-p271:32:32-p272:64:64-i64:64-i128:128-f80:128-n8:16:32:64-S128"
target triple = "x86_64-pc-linux-gnu"

%struct.SDL_Haptic = type { i32, ptr, ptr, i32, i32, i32, i32, ptr, i32, i32, %union.SDL_HapticEffect, ptr }
%union.SDL_HapticEffect = type { %struct.SDL_HapticCustom, [16 x i8] }
%struct.SDL_HapticCustom = type { i16, %struct.SDL_HapticDirection, i32, i16, i16, i16, i8, i16, i16, ptr, i16, i16, i16, i16 }
%struct.SDL_HapticDirection = type { i8, [3 x i32] }

@.str = private unnamed_addr constant [26 x i8] c"Parameter '%s' is invalid\00", align 1
@.str.1 = private unnamed_addr constant [7 x i8] c"haptic\00", align 1
@.str.15 = private unnamed_addr constant [52 x i8] c"Haptic: Device does not support setting autocenter.\00", align 1
@.str.16 = private unnamed_addr constant [46 x i8] c"Haptic: Autocenter must be between 0 and 100.\00", align 1

; Function Attrs: nounwind uwtable
define hidden zeroext i1 @SDL_SetHapticAutocenter_REAL(ptr noundef %0, i32 noundef %1) #0 {
  %3 = alloca i1, align 1
  %4 = alloca ptr, align 8
  %5 = alloca i32, align 4
  store ptr %0, ptr %4, align 8
  store i32 %1, ptr %5, align 4
  %6 = load ptr, ptr %4, align 8
  %7 = call zeroext i1 @SDL_ObjectValid(ptr noundef %6, i32 noundef 6)
  br i1 %7, label %10, label %8

8:                                                ; preds = %2
  %9 = call zeroext i1 (ptr, ...) @SDL_SetError_REAL(ptr noundef @.str, ptr noundef @.str.1)
  store i1 false, ptr %3, align 1
  br label %37

10:                                               ; preds = %2
  %11 = load ptr, ptr %4, align 8
  %12 = getelementptr inbounds nuw %struct.SDL_Haptic, ptr %11, i32 0, i32 5
  %13 = load i32, ptr %12, align 8
  %14 = and i32 %13, 131072
  %15 = icmp ne i32 %14, 0
  br i1 %15, label %18, label %16

16:                                               ; preds = %10
  %17 = call zeroext i1 (ptr, ...) @SDL_SetError_REAL(ptr noundef @.str.15)
  store i1 %17, ptr %3, align 1
  br label %37

18:                                               ; preds = %10
  %19 = load i32, ptr %5, align 4
  %20 = icmp slt i32 %19, 0
  br i1 %20, label %24, label %21

21:                                               ; preds = %18
  %22 = load i32, ptr %5, align 4
  %23 = icmp sgt i32 %22, 100
  br i1 %23, label %24, label %26

24:                                               ; preds = %21, %18
  %25 = call zeroext i1 (ptr, ...) @SDL_SetError_REAL(ptr noundef @.str.16)
  store i1 %25, ptr %3, align 1
  br label %37

26:                                               ; preds = %21
  %27 = load ptr, ptr %4, align 8
  %28 = call zeroext i1 @SDL_HIDAPI_HapticIsHidapi(ptr noundef %27)
  br i1 %28, label %29, label %33

29:                                               ; preds = %26
  %30 = load ptr, ptr %4, align 8
  %31 = load i32, ptr %5, align 4
  %32 = call zeroext i1 @SDL_HIDAPI_HapticSetAutocenter(ptr noundef %30, i32 noundef %31)
  store i1 %32, ptr %3, align 1
  br label %37

33:                                               ; preds = %26
  %34 = load ptr, ptr %4, align 8
  %35 = load i32, ptr %5, align 4
  %36 = call zeroext i1 @SDL_SYS_HapticSetAutocenter(ptr noundef %34, i32 noundef %35)
  store i1 %36, ptr %3, align 1
  br label %37

37:                                               ; preds = %33, %29, %24, %16, %8
  %38 = load i1, ptr %3, align 1
  ret i1 %38
}