; Function Attrs: nounwind uwtable
define hidden zeroext i1 @SDL_SetHapticAutocenter_REAL(ptr noundef %0, i32 noundef %1) local_unnamed_addr #0 {
  %3 = tail call zeroext i1 @SDL_ObjectValid(ptr noundef %0, i32 noundef 6) #9
  br i1 %3, label %6, label %4

4:                                                ; preds = %2
  %5 = tail call zeroext i1 (ptr, ...) @SDL_SetError_REAL(ptr noundef nonnull @.str, ptr noundef nonnull @.str.1) #9
  br label %21

6:                                                ; preds = %2
  %7 = getelementptr inbounds nuw i8, ptr %0, i64 32
  %8 = load i32, ptr %7, align 8
  %9 = and i32 %8, 131072
  %.not = icmp eq i32 %9, 0
  br i1 %.not, label %10, label %12

10:                                               ; preds = %6
  %11 = tail call zeroext i1 (ptr, ...) @SDL_SetError_REAL(ptr noundef nonnull @.str.15) #9
  br label %21

12:                                               ; preds = %6
  %or.cond = icmp ugt i32 %1, 100
  br i1 %or.cond, label %13, label %15

13:                                               ; preds = %12
  %14 = tail call zeroext i1 (ptr, ...) @SDL_SetError_REAL(ptr noundef nonnull @.str.16) #9
  br label %21

15:                                               ; preds = %12
  %16 = tail call zeroext i1 @SDL_HIDAPI_HapticIsHidapi(ptr noundef nonnull %0) #9
  br i1 %16, label %17, label %19

17:                                               ; preds = %15
  %18 = tail call zeroext i1 @SDL_HIDAPI_HapticSetAutocenter(ptr noundef nonnull %0, i32 noundef %1) #9
  br label %21

19:                                               ; preds = %15
  %20 = tail call zeroext i1 @SDL_SYS_HapticSetAutocenter(ptr noundef nonnull %0, i32 noundef %1) #9
  br label %21

21:                                               ; preds = %19, %17, %13, %10, %4
  %.0 = phi i1 [ %14, %13 ], [ %18, %17 ], [ %20, %19 ], [ %11, %10 ], [ false, %4 ]
  ret i1 %.0
}